; Function Attrs: mustprogress uwtable
define void @_ZN15TCPStreamDialog26on_dragRadioButton_toggledEb(ptr nocapture noundef nonnull align 8 dereferenceable(584) %0, i1 noundef zeroext %1) local_unnamed_addr #2 align 2 {
  %3 = alloca %class.QFlags.42, align 4
  br i1 %1, label %4, label %20

4:                                                ; preds = %2
  %5 = getelementptr inbounds i8, ptr %0, i64 472
  store i8 1, ptr %5, align 8
  %6 = getelementptr inbounds i8, ptr %0, i64 480
  %7 = load ptr, ptr %6, align 8
  %.not = icmp eq ptr %7, null
  br i1 %.not, label %15, label %8

8:                                                ; preds = %4
  %9 = getelementptr inbounds i8, ptr %7, i64 32
  %10 = load ptr, ptr %9, align 8
  %11 = getelementptr inbounds i8, ptr %10, i64 8
  %12 = load i32, ptr %11, align 8
  %13 = and i32 %12, 32768
  %.not1 = icmp eq i32 %13, 0
  br i1 %.not1, label %15, label %14

14:                                               ; preds = %8
  tail call void @_ZN7QWidget4hideEv(ptr noundef nonnull align 8 dereferenceable(40) %7)
  br label %15

15:                                               ; preds = %14, %8, %4
  %16 = getelementptr inbounds i8, ptr %0, i64 64
  %17 = load ptr, ptr %16, align 8
  %18 = getelementptr inbounds i8, ptr %17, i64 232
  %19 = load ptr, ptr %18, align 8
  store i32 3, ptr %3, align 4
  call void @_ZN11QCustomPlot15setInteractionsERK6QFlagsIN3QCP11InteractionEE(ptr noundef nonnull align 8 dereferenceable(513) %19, ptr noundef nonnull align 4 dereferenceable(4) %3)
  br label %20

20:                                               ; preds = %15, %2
  ret void
}